target datalayout = "e-m:e-p270:32:32-p271:32:32-p272:64:64-i64:64-i128:128-f80:128-n8:16:32:64-S128"
target triple = "x86_64-pc-linux-gnu"

@.str.1 = private unnamed_addr constant [22 x i8] c"REPLAYGAIN_TRACK_GAIN\00", align 1
@.str.2 = private unnamed_addr constant [22 x i8] c"REPLAYGAIN_TRACK_PEAK\00", align 1
@.str.5 = private unnamed_addr constant [24 x i8] c"memory allocation error\00", align 1
@gain_format_ = internal global ptr @.str.10, align 8
@peak_format_ = internal global ptr @.str.11, align 8

; Function Attrs: nounwind sspstrong uwtable
define dso_local ptr @grabbag__replaygain_store_to_vorbiscomment_title(ptr noundef %0, float noundef %1, float noundef %2) #0 {
  %4 = alloca ptr, align 8
  %5 = alloca ptr, align 8
  %6 = alloca float, align 4
  %7 = alloca float, align 4
  store ptr %0, ptr %5, align 8, !tbaa !44
  store float %1, ptr %6, align 4, !tbaa !15
  store float %2, ptr %7, align 4, !tbaa !15
  %8 = load ptr, ptr %5, align 8, !tbaa !44
  %9 = call i32 @FLAC__metadata_object_vorbiscomment_remove_entries_matching(ptr noundef %8, ptr noundef @.str.1)
  %10 = icmp slt i32 %9, 0
  br i1 %10, label %15, label %11

11:                                               ; preds = %3
  %12 = load ptr, ptr %5, align 8, !tbaa !44
  %13 = call i32 @FLAC__metadata_object_vorbiscomment_remove_entries_matching(ptr noundef %12, ptr noundef @.str.2)
  %14 = icmp slt i32 %13, 0
  br i1 %14, label %15, label %16

15:                                               ; preds = %11, %3
  store ptr @.str.5, ptr %4, align 8
  br label %30

16:                                               ; preds = %11
  %17 = load ptr, ptr %5, align 8, !tbaa !44
  %18 = load ptr, ptr @gain_format_, align 8, !tbaa !28
  %19 = load float, ptr %6, align 4, !tbaa !15
  %20 = call i32 @append_tag_(ptr noundef %17, ptr noundef %18, ptr noundef @.str.1, float noundef %19)
  %21 = icmp ne i32 %20, 0
  br i1 %21, label %22, label %28

22:                                               ; preds = %16
  %23 = load ptr, ptr %5, align 8, !tbaa !44
  %24 = load ptr, ptr @peak_format_, align 8, !tbaa !28
  %25 = load float, ptr %7, align 4, !tbaa !15
  %26 = call i32 @append_tag_(ptr noundef %23, ptr noundef %24, ptr noundef @.str.2, float noundef %25)
  %27 = icmp ne i32 %26, 0
  br i1 %27, label %29, label %28

28:                                               ; preds = %22, %16
  store ptr @.str.5, ptr %4, align 8
  br label %30

29:                                               ; preds = %22
  store ptr null, ptr %4, align 8
  br label %30

30:                                               ; preds = %29, %28, %15
  %31 = load ptr, ptr %4, align 8
  ret ptr %31
}